target datalayout = "e-m:e-p270:32:32-p271:32:32-p272:64:64-i64:64-i128:128-f80:128-n8:16:32:64-S128"
target triple = "x86_64-pc-linux-gnu"

%struct.alts_grpc_integrity_only_record_protocol = type { %struct.alts_grpc_record_protocol, i8, %struct.grpc_slice_buffer, ptr }
%struct.alts_grpc_record_protocol = type { ptr, ptr, %struct.grpc_slice_buffer, ptr, i64, i64, ptr, i64 }
%struct.grpc_slice_buffer = type { ptr, ptr, i64, i64, i64, [6 x %struct.grpc_slice] }
%struct.grpc_slice = type { ptr, %"union.grpc_slice::grpc_slice_data" }
%"union.grpc_slice::grpc_slice_data" = type { %"struct.grpc_slice::grpc_slice_data::grpc_slice_refcounted", [8 x i8] }
%"struct.grpc_slice::grpc_slice_data::grpc_slice_refcounted" = type { i64, ptr }

; Function Attrs: mustprogress uwtable
define internal void @_ZL33alts_grpc_integrity_only_destructP25alts_grpc_record_protocol(ptr noundef %0) #4 {
  %2 = alloca ptr, align 8
  %3 = alloca ptr, align 8
  store ptr %0, ptr %2, align 8, !tbaa !33
  %4 = load ptr, ptr %2, align 8, !tbaa !33
  %5 = icmp eq ptr %4, null
  br i1 %5, label %6, label %7

6:                                                ; preds = %1
  br label %14

7:                                                ; preds = %1
  call void @llvm.lifetime.start.p0(i64 8, ptr %3) #3
  %8 = load ptr, ptr %2, align 8, !tbaa !33
  store ptr %8, ptr %3, align 8, !tbaa !15
  %9 = load ptr, ptr %3, align 8, !tbaa !15
  %10 = getelementptr inbounds nuw %struct.alts_grpc_integrity_only_record_protocol, ptr %9, i32 0, i32 2
  call void @grpc_slice_buffer_destroy(ptr noundef %10)
  %11 = load ptr, ptr %3, align 8, !tbaa !15
  %12 = getelementptr inbounds nuw %struct.alts_grpc_integrity_only_record_protocol, ptr %11, i32 0, i32 3
  %13 = load ptr, ptr %12, align 8, !tbaa !31
  call void @gpr_free(ptr noundef %13)
  call void @llvm.lifetime.end.p0(i64 8, ptr %3) #3
  br label %14

14:                                               ; preds = %7, %6
  ret void
}