; Function Attrs: mustprogress uwtable
define internal void @_ZL33alts_grpc_integrity_only_destructP25alts_grpc_record_protocol(ptr noundef %0) #3 {
  %2 = icmp eq ptr %0, null
  br i1 %2, label %7, label %3

3:                                                ; preds = %1
  %4 = getelementptr inbounds nuw i8, ptr %0, i64 296
  tail call void @grpc_slice_buffer_destroy(ptr noundef nonnull %4)
  %5 = getelementptr inbounds nuw i8, ptr %0, i64 528
  %6 = load ptr, ptr %5, align 8, !tbaa !18
  tail call void @gpr_free(ptr noundef %6)
  br label %7

7:                                                ; preds = %1, %3
  ret void
}